target datalayout = "e-m:e-p270:32:32-p271:32:32-p272:64:64-i64:64-i128:128-f80:128-n8:16:32:64-S128"
target triple = "x86_64-unknown-linux-gnu"

%"class.nlsat::solver" = type { ptr, ptr }
%"struct.nlsat::solver::imp" = type { ptr, ptr, ptr, ptr, i8, ptr, ptr, %"class.polynomial::cache", ptr, %class.dependency_manager, %"class.nlsat::assignment", %"class.nlsat::evaluator", ptr, %class.chashtable, %class.chashtable.7, %class.svector.8, %class.ref_vector, %class.ref_vector, %class.id_gen, %class.ptr_vector.12, %class.ptr_vector.12, %class.ptr_vector.12, i32, %class.ptr_vector.14, %class.svector.16, %class.svector.8, %class.svector.18, %class.vector.20, %class.svector.5, %class.id_gen, %class.svector.5, %class.vector.20, %class.ptr_vector.21, %class.ptr_vector.14, %class.svector.8, %class.svector.8, %"struct.nlsat::solver::imp::perm_display_var_proc", ptr, %"class.nlsat::explain", i32, i32, i32, %class.svector.23, %"class.algebraic_numbers::anum", i64, i32, i8, i8, i8, i8, i32, i8, i8, i8, i32, i32, i32, i32, i32, i32, i32, %class.svector.5, %class.svector.25, %class.ptr_vector.12, i32, %class.svector.27, i32, %"class.nlsat::scoped_literal_vector", %"class.nlsat::scoped_literal_vector", %class.obj_ref, %class.svector.8, %class.svector.8, %class.svector.16 }
%"class.polynomial::cache" = type { ptr }
%class.dependency_manager = type { ptr, ptr, %class.ptr_vector.1 }
%class.ptr_vector.1 = type { %class.vector.2 }
%class.vector.2 = type { ptr }
%"class.nlsat::assignment" = type { %"class.polynomial::var2value", %class._scoped_numeral_vector, %class.svector.5 }
%"class.polynomial::var2value" = type { ptr }
%class._scoped_numeral_vector = type { %class.svector.3, ptr }
%class.svector.3 = type { %class.vector.4 }
%class.vector.4 = type { ptr }
%"class.nlsat::evaluator" = type { ptr }
%class.chashtable = type { ptr, i32, i32, i32, i32, i32, i32, i32, ptr, ptr, ptr }
%class.chashtable.7 = type { ptr, i32, i32, i32, i32, i32, i32, i32, ptr, ptr, ptr }
%class.ref_vector = type { %class.ref_vector_core }
%class.ref_vector_core = type { %class.ref_manager_wrapper, %class.ptr_vector.10 }
%class.ref_manager_wrapper = type { ptr }
%class.ptr_vector.10 = type { %class.vector.11 }
%class.vector.11 = type { ptr }
%class.svector.18 = type { %class.vector.19 }
%class.vector.19 = type { ptr }
%class.id_gen = type { i32, %class.svector.8 }
%class.vector.20 = type { ptr }
%class.ptr_vector.21 = type { %class.vector.22 }
%class.vector.22 = type { ptr }
%class.ptr_vector.14 = type { %class.vector.15 }
%class.vector.15 = type { ptr }
%"struct.nlsat::solver::imp::perm_display_var_proc" = type { %"struct.polynomial::display_var_proc", ptr, %"struct.polynomial::display_var_proc", ptr }
%"struct.polynomial::display_var_proc" = type { ptr }
%"class.nlsat::explain" = type { ptr }
%class.svector.23 = type { %class.vector.24 }
%class.vector.24 = type { ptr }
%"class.algebraic_numbers::anum" = type { ptr }
%class.svector.5 = type { %class.vector.6 }
%class.vector.6 = type { ptr }
%class.svector.25 = type { %class.vector.26 }
%class.vector.26 = type { ptr }
%class.ptr_vector.12 = type { %class.vector.13 }
%class.vector.13 = type { ptr }
%class.svector.27 = type { %class.vector.28 }
%class.vector.28 = type { ptr }
%"class.nlsat::scoped_literal_vector" = type { ptr, %class.svector.25 }
%class.obj_ref = type { ptr, ptr }
%class.svector.8 = type { %class.vector.9 }
%class.vector.9 = type { ptr }
%class.svector.16 = type { %class.vector.17 }
%class.vector.17 = type { ptr }
%"class.nlsat::atom" = type { i32, i32, i32, i32 }

; Function Attrs: mustprogress nounwind uwtable
define linkonce_odr hidden noundef nonnull align 8 dereferenceable(8) ptr @_ZN6vectorIPN5nlsat4atomELb0EjEixEj(ptr noundef nonnull align 8 dereferenceable(8) %this, i32 noundef %idx) #4 comdat align 2 {
entry:
  %this.addr = alloca ptr, align 8
  %idx.addr = alloca i32, align 4
  store ptr %this, ptr %this.addr, align 8
  store i32 %idx, ptr %idx.addr, align 4
  %this1 = load ptr, ptr %this.addr, align 8
  %m_data = getelementptr inbounds %class.vector.15, ptr %this1, i32 0, i32 0
  %0 = load ptr, ptr %m_data, align 8
  %1 = load i32, ptr %idx.addr, align 4
  %idxprom = zext i32 %1 to i64
  %arrayidx = getelementptr inbounds ptr, ptr %0, i64 %idxprom
  ret ptr %arrayidx
}

; Function Attrs: mustprogress nounwind uwtable
define linkonce_odr hidden noundef i32 @_ZNK5nlsat4atom4bvarEv(ptr noundef nonnull align 4 dereferenceable(16) %this) #4 comdat align 2 {
entry:
  %this.addr = alloca ptr, align 8
  store ptr %this, ptr %this.addr, align 8
  %this1 = load ptr, ptr %this.addr, align 8
  %m_bool_var = getelementptr inbounds %"class.nlsat::atom", ptr %this1, i32 0, i32 2
  %0 = load i32, ptr %m_bool_var, align 4
  ret i32 %0
}

; Function Attrs: mustprogress uwtable
define linkonce_odr hidden noundef i32 @_ZN5nlsat6solver3imp12mk_ineq_atomENS_4atom4kindEjPKPN10polynomial10polynomialEPKb(ptr noundef nonnull align 8 dereferenceable(728) %this, i32 noundef %k, i32 noundef %sz, ptr noundef %ps, ptr noundef %is_even) #5 comdat align 2 {
entry:
  %retval = alloca i32, align 4
  %this.addr = alloca ptr, align 8
  %k.addr = alloca i32, align 4
  %sz.addr = alloca i32, align 4
  %ps.addr = alloca ptr, align 8
  %is_even.addr = alloca ptr, align 8
  %is_new = alloca i8, align 1
  %atom = alloca ptr, align 8
  %b = alloca i32, align 4
  store ptr %this, ptr %this.addr, align 8
  store i32 %k, ptr %k.addr, align 4
  store i32 %sz, ptr %sz.addr, align 4
  store ptr %ps, ptr %ps.addr, align 8
  store ptr %is_even, ptr %is_even.addr, align 8
  %this1 = load ptr, ptr %this.addr, align 8
  store i8 0, ptr %is_new, align 1
  %0 = load i32, ptr %k.addr, align 4
  %1 = load i32, ptr %sz.addr, align 4
  %2 = load ptr, ptr %ps.addr, align 8
  %3 = load ptr, ptr %is_even.addr, align 8
  %call = call noundef ptr @_ZN5nlsat6solver3imp12mk_ineq_atomENS_4atom4kindEjPKPN10polynomial10polynomialEPKbRb(ptr noundef nonnull align 8 dereferenceable(728) %this1, i32 noundef %0, i32 noundef %1, ptr noundef %2, ptr noundef %3, ptr noundef nonnull align 1 dereferenceable(1) %is_new)
  store ptr %call, ptr %atom, align 8
  %4 = load i8, ptr %is_new, align 1
  %tobool = trunc i8 %4 to i1
  br i1 %tobool, label %if.else, label %if.then

if.then:                                          ; preds = %entry
  %5 = load ptr, ptr %atom, align 8
  %call2 = call noundef i32 @_ZNK5nlsat4atom4bvarEv(ptr noundef nonnull align 4 dereferenceable(16) %5)
  store i32 %call2, ptr %retval, align 4
  br label %return

if.else:                                          ; preds = %entry
  %call3 = call noundef i32 @_ZN5nlsat6solver3imp16mk_bool_var_coreEv(ptr noundef nonnull align 8 dereferenceable(728) %this1)
  store i32 %call3, ptr %b, align 4
  %6 = load ptr, ptr %atom, align 8
  %m_atoms = getelementptr inbounds %"struct.nlsat::solver::imp", ptr %this1, i32 0, i32 23
  %7 = load i32, ptr %b, align 4
  %call4 = call noundef nonnull align 8 dereferenceable(8) ptr @_ZN6vectorIPN5nlsat4atomELb0EjEixEj(ptr noundef nonnull align 8 dereferenceable(8) %m_atoms, i32 noundef %7)
  store ptr %6, ptr %call4, align 8
  %8 = load i32, ptr %b, align 4
  %9 = load ptr, ptr %atom, align 8
  %m_bool_var = getelementptr inbounds %"class.nlsat::atom", ptr %9, i32 0, i32 2
  store i32 %8, ptr %m_bool_var, align 8
  %10 = load i32, ptr %b, align 4
  store i32 %10, ptr %retval, align 4
  br label %return

return:                                           ; preds = %if.else, %if.then
  %11 = load i32, ptr %retval, align 4
  ret i32 %11
}

; Function Attrs: mustprogress uwtable
define hidden noundef i32 @_ZN5nlsat6solver12mk_ineq_atomENS_4atom4kindEjPKPN10polynomial10polynomialEPKb(ptr noundef nonnull align 8 dereferenceable(16) %this, i32 noundef %k, i32 noundef %sz, ptr noundef %ps, ptr noundef %is_even) #5 align 2 {
entry:
  %this.addr = alloca ptr, align 8
  %k.addr = alloca i32, align 4
  %sz.addr = alloca i32, align 4
  %ps.addr = alloca ptr, align 8
  %is_even.addr = alloca ptr, align 8
  store ptr %this, ptr %this.addr, align 8
  store i32 %k, ptr %k.addr, align 4
  store i32 %sz, ptr %sz.addr, align 4
  store ptr %ps, ptr %ps.addr, align 8
  store ptr %is_even, ptr %is_even.addr, align 8
  %this1 = load ptr, ptr %this.addr, align 8
  %m_imp = getelementptr inbounds %"class.nlsat::solver", ptr %this1, i32 0, i32 0
  %0 = load ptr, ptr %m_imp, align 8
  %1 = load i32, ptr %k.addr, align 4
  %2 = load i32, ptr %sz.addr, align 4
  %3 = load ptr, ptr %ps.addr, align 8
  %4 = load ptr, ptr %is_even.addr, align 8
  %call = call noundef i32 @_ZN5nlsat6solver3imp12mk_ineq_atomENS_4atom4kindEjPKPN10polynomial10polynomialEPKb(ptr noundef nonnull align 8 dereferenceable(728) %0, i32 noundef %1, i32 noundef %2, ptr noundef %3, ptr noundef %4)
  ret i32 %call
}