; Function Attrs: mustprogress uwtable
define hidden noundef i32 @_ZN5nlsat6solver12mk_ineq_atomENS_4atom4kindEjPKPN10polynomial10polynomialEPKb(ptr nocapture noundef nonnull readonly align 8 dereferenceable(16) %this, i32 noundef %k, i32 noundef %sz, ptr noundef %ps, ptr noundef %is_even) local_unnamed_addr #4 align 2 {
entry:
  %is_new.i = alloca i8, align 1
  %0 = load ptr, ptr %this, align 8
  call void @llvm.lifetime.start.p0(i64 1, ptr nonnull %is_new.i)
  store i8 0, ptr %is_new.i, align 1
  %call.i = call noundef ptr @_ZN5nlsat6solver3imp12mk_ineq_atomENS_4atom4kindEjPKPN10polynomial10polynomialEPKbRb(ptr noundef nonnull align 8 dereferenceable(728) %0, i32 noundef %k, i32 noundef %sz, ptr noundef %ps, ptr noundef %is_even, ptr noundef nonnull align 1 dereferenceable(1) %is_new.i)
  %1 = load i8, ptr %is_new.i, align 1
  %2 = and i8 %1, 1
  %tobool.not.i = icmp eq i8 %2, 0
  br i1 %tobool.not.i, label %if.then.i, label %if.else.i

if.then.i:                                        ; preds = %entry
  %m_bool_var.i.i = getelementptr inbounds i8, ptr %call.i, i64 8
  %3 = load i32, ptr %m_bool_var.i.i, align 4
  br label %_ZN5nlsat6solver3imp12mk_ineq_atomENS_4atom4kindEjPKPN10polynomial10polynomialEPKb.exit

if.else.i:                                        ; preds = %entry
  %call3.i = call noundef i32 @_ZN5nlsat6solver3imp16mk_bool_var_coreEv(ptr noundef nonnull align 8 dereferenceable(728) %0)
  %m_atoms.i = getelementptr inbounds i8, ptr %0, i64 360
  %4 = load ptr, ptr %m_atoms.i, align 8
  %idxprom.i.i = zext i32 %call3.i to i64
  %arrayidx.i.i = getelementptr inbounds ptr, ptr %4, i64 %idxprom.i.i
  store ptr %call.i, ptr %arrayidx.i.i, align 8
  %m_bool_var.i = getelementptr inbounds i8, ptr %call.i, i64 8
  store i32 %call3.i, ptr %m_bool_var.i, align 8
  br label %_ZN5nlsat6solver3imp12mk_ineq_atomENS_4atom4kindEjPKPN10polynomial10polynomialEPKb.exit

_ZN5nlsat6solver3imp12mk_ineq_atomENS_4atom4kindEjPKPN10polynomial10polynomialEPKb.exit: ; preds = %if.then.i, %if.else.i
  %retval.0.i = phi i32 [ %call3.i, %if.else.i ], [ %3, %if.then.i ]
  call void @llvm.lifetime.end.p0(i64 1, ptr nonnull %is_new.i)
  ret i32 %retval.0.i
}